; Function Attrs: mustprogress uwtable
define dso_local noundef zeroext i1 @_ZN4i18n12phonenumbers18PhoneNumberMatcher4FindEiPNS0_16PhoneNumberMatchE(ptr noundef nonnull align 8 dereferenceable(117) %0, i32 noundef %1, ptr noundef %2) local_unnamed_addr #4 align 2 personality ptr @__gxx_personality_v0 {
  %4 = alloca %"class.std::__cxx11::basic_string", align 8
  %5 = alloca %"class.std::__cxx11::basic_string", align 8
  %6 = alloca %"class.std::__cxx11::basic_string", align 8
  %7 = load ptr, ptr %0, align 8
  %8 = getelementptr inbounds i8, ptr %7, i64 432
  %9 = load ptr, ptr %8, align 8
  %10 = getelementptr inbounds i8, ptr %0, i64 24
  %11 = sext i32 %1 to i64
  call void @_ZNKSt7__cxx1112basic_stringIcSt11char_traitsIcESaIcEE6substrEmm(ptr dead_on_unwind nonnull writable sret(%"class.std::__cxx11::basic_string") align 8 %4, ptr noundef nonnull align 8 dereferenceable(32) %10, i64 noundef %11, i64 noundef -1)
  %12 = load ptr, ptr %9, align 8
  %13 = getelementptr inbounds i8, ptr %12, i64 16
  %14 = load ptr, ptr %13, align 8
  %15 = invoke noundef ptr %14(ptr noundef nonnull align 8 dereferenceable(8) %9, ptr noundef nonnull align 8 dereferenceable(32) %4)
          to label %16 unwind label %47

16:                                               ; preds = %3
  call void @_ZNSt7__cxx1112basic_stringIcSt11char_traitsIcESaIcEED1Ev(ptr noundef nonnull align 8 dereferenceable(32) %4) #19
  call void @_ZNSt7__cxx1112basic_stringIcSt11char_traitsIcESaIcEEC1Ev(ptr noundef nonnull align 8 dereferenceable(32) %5) #19
  %17 = getelementptr inbounds i8, ptr %0, i64 92
  %18 = load i32, ptr %17, align 4
  %19 = icmp sgt i32 %18, 0
  br i1 %19, label %.lr.ph, label %.critedge

.lr.ph:                                           ; preds = %16, %55
  %20 = load ptr, ptr %0, align 8
  %21 = getelementptr inbounds i8, ptr %20, i64 576
  %22 = load ptr, ptr %21, align 8
  %23 = load ptr, ptr %22, align 8
  %24 = getelementptr inbounds i8, ptr %23, i64 16
  %25 = load ptr, ptr %24, align 8
  %26 = invoke noundef zeroext i1 %25(ptr noundef nonnull align 8 dereferenceable(8) %22, ptr noundef %15, i1 noundef zeroext false, ptr noundef nonnull %5, ptr noundef null, ptr noundef null, ptr noundef null, ptr noundef null, ptr noundef null)
          to label %_ZNK4i18n12phonenumbers6RegExp14FindAndConsumeEPNS0_11RegExpInputEPNSt7__cxx1112basic_stringIcSt11char_traitsIcESaIcEEE.exit unwind label %49

_ZNK4i18n12phonenumbers6RegExp14FindAndConsumeEPNS0_11RegExpInputEPNSt7__cxx1112basic_stringIcSt11char_traitsIcESaIcEEE.exit: ; preds = %.lr.ph
  br i1 %26, label %27, label %.critedge

27:                                               ; preds = %_ZNK4i18n12phonenumbers6RegExp14FindAndConsumeEPNS0_11RegExpInputEPNSt7__cxx1112basic_stringIcSt11char_traitsIcESaIcEEE.exit
  %28 = call noundef i64 @_ZNKSt7__cxx1112basic_stringIcSt11char_traitsIcESaIcEE6lengthEv(ptr noundef nonnull align 8 dereferenceable(32) %10) #19
  %29 = load ptr, ptr %15, align 8
  %30 = getelementptr inbounds i8, ptr %29, i64 16
  %31 = load ptr, ptr %30, align 8
  invoke void %31(ptr dead_on_unwind nonnull writable sret(%"class.std::__cxx11::basic_string") align 8 %6, ptr noundef nonnull align 8 dereferenceable(8) %15)
          to label %32 unwind label %.thread

32:                                               ; preds = %27
  %33 = call noundef i64 @_ZNKSt7__cxx1112basic_stringIcSt11char_traitsIcESaIcEE6lengthEv(ptr noundef nonnull align 8 dereferenceable(32) %6) #19
  %34 = call noundef i64 @_ZNKSt7__cxx1112basic_stringIcSt11char_traitsIcESaIcEE6lengthEv(ptr noundef nonnull align 8 dereferenceable(32) %5) #19
  call void @_ZNSt7__cxx1112basic_stringIcSt11char_traitsIcESaIcEED1Ev(ptr noundef nonnull align 8 dereferenceable(32) %6) #19
  %35 = load ptr, ptr %0, align 8
  %36 = getelementptr inbounds i8, ptr %35, i64 552
  %37 = load ptr, ptr %36, align 8
  %38 = load ptr, ptr %37, align 8
  %39 = getelementptr inbounds i8, ptr %38, i64 24
  %40 = load ptr, ptr %39, align 8
  %41 = invoke noundef zeroext i1 %40(ptr noundef nonnull align 8 dereferenceable(8) %37, ptr noundef nonnull align 8 dereferenceable(32) %5, i1 noundef zeroext false, ptr noundef nonnull %5)
          to label %_ZNK4i18n12phonenumbers6RegExp12PartialMatchERKNSt7__cxx1112basic_stringIcSt11char_traitsIcESaIcEEEPS7_.exit unwind label %.thread

_ZNK4i18n12phonenumbers6RegExp12PartialMatchERKNSt7__cxx1112basic_stringIcSt11char_traitsIcESaIcEEEPS7_.exit: ; preds = %32
  %42 = add i64 %33, %34
  %43 = sub i64 %28, %42
  %44 = trunc i64 %43 to i32
  %45 = invoke noundef zeroext i1 @_ZN4i18n12phonenumbers18PhoneNumberMatcher12ExtractMatchERKNSt7__cxx1112basic_stringIcSt11char_traitsIcESaIcEEEiPNS0_16PhoneNumberMatchE(ptr noundef nonnull align 8 dereferenceable(117) %0, ptr noundef nonnull align 8 dereferenceable(32) %5, i32 noundef %44, ptr noundef %2)
          to label %46 unwind label %.thread22

.thread22:                                        ; preds = %_ZNK4i18n12phonenumbers6RegExp12PartialMatchERKNSt7__cxx1112basic_stringIcSt11char_traitsIcESaIcEEEPS7_.exit
  %lpad.thr_comm.split-lp23 = landingpad { ptr, i32 }
          cleanup
  br label %.sink.split

46:                                               ; preds = %_ZNK4i18n12phonenumbers6RegExp12PartialMatchERKNSt7__cxx1112basic_stringIcSt11char_traitsIcESaIcEEEPS7_.exit
  br i1 %45, label %.critedge.thread, label %55

47:                                               ; preds = %3
  %48 = landingpad { ptr, i32 }
          cleanup
  call void @_ZNSt7__cxx1112basic_stringIcSt11char_traitsIcESaIcEED1Ev(ptr noundef nonnull align 8 dereferenceable(32) %4) #19
  br label %_ZN5boost10scoped_ptrIN4i18n12phonenumbers11RegExpInputEED2Ev.exit

.thread:                                          ; preds = %32, %27
  %lpad.thr_comm = landingpad { ptr, i32 }
          cleanup
  br label %.sink.split

49:                                               ; preds = %.lr.ph
  %lpad.thr_comm.split-lp = landingpad { ptr, i32 }
          cleanup
  call void @_ZNSt7__cxx1112basic_stringIcSt11char_traitsIcESaIcEED1Ev(ptr noundef nonnull align 8 dereferenceable(32) %5) #19
  %50 = icmp eq ptr %15, null
  br i1 %50, label %_ZN5boost10scoped_ptrIN4i18n12phonenumbers11RegExpInputEED2Ev.exit, label %51

.sink.split:                                      ; preds = %.thread, %.thread22
  %lpad.phi15.ph = phi { ptr, i32 } [ %lpad.thr_comm.split-lp23, %.thread22 ], [ %lpad.thr_comm, %.thread ]
  call void @_ZNSt7__cxx1112basic_stringIcSt11char_traitsIcESaIcEED1Ev(ptr noundef nonnull align 8 dereferenceable(32) %5) #19
  br label %51

51:                                               ; preds = %.sink.split, %49
  %lpad.phi15 = phi { ptr, i32 } [ %lpad.thr_comm.split-lp, %49 ], [ %lpad.phi15.ph, %.sink.split ]
  %52 = load ptr, ptr %15, align 8
  %53 = getelementptr inbounds i8, ptr %52, i64 8
  %54 = load ptr, ptr %53, align 8
  call void %54(ptr noundef nonnull align 8 dereferenceable(8) %15) #19
  br label %_ZN5boost10scoped_ptrIN4i18n12phonenumbers11RegExpInputEED2Ev.exit

55:                                               ; preds = %46
  %56 = call noundef i64 @_ZNKSt7__cxx1112basic_stringIcSt11char_traitsIcESaIcEE6lengthEv(ptr noundef nonnull align 8 dereferenceable(32) %5) #19
  %57 = load i32, ptr %17, align 4
  %58 = add nsw i32 %57, -1
  store i32 %58, ptr %17, align 4
  %59 = icmp sgt i32 %57, 1
  br i1 %59, label %.lr.ph, label %.critedge.thread, !llvm.loop !21

.critedge.thread:                                 ; preds = %46, %55
  call void @_ZNSt7__cxx1112basic_stringIcSt11char_traitsIcESaIcEED1Ev(ptr noundef nonnull align 8 dereferenceable(32) %5) #19
  br label %61

.critedge:                                        ; preds = %_ZNK4i18n12phonenumbers6RegExp14FindAndConsumeEPNS0_11RegExpInputEPNSt7__cxx1112basic_stringIcSt11char_traitsIcESaIcEEE.exit, %16
  call void @_ZNSt7__cxx1112basic_stringIcSt11char_traitsIcESaIcEED1Ev(ptr noundef nonnull align 8 dereferenceable(32) %5) #19
  %60 = icmp eq ptr %15, null
  br i1 %60, label %_ZN5boost10scoped_ptrIN4i18n12phonenumbers11RegExpInputEED2Ev.exit10, label %61

61:                                               ; preds = %.critedge.thread, %.critedge
  %.025 = phi i1 [ %45, %.critedge.thread ], [ false, %.critedge ]
  %62 = load ptr, ptr %15, align 8
  %63 = getelementptr inbounds i8, ptr %62, i64 8
  %64 = load ptr, ptr %63, align 8
  call void %64(ptr noundef nonnull align 8 dereferenceable(8) %15) #19
  br label %_ZN5boost10scoped_ptrIN4i18n12phonenumbers11RegExpInputEED2Ev.exit10

_ZN5boost10scoped_ptrIN4i18n12phonenumbers11RegExpInputEED2Ev.exit10: ; preds = %.critedge, %61
  %.026 = phi i1 [ false, %.critedge ], [ %.025, %61 ]
  ret i1 %.026

_ZN5boost10scoped_ptrIN4i18n12phonenumbers11RegExpInputEED2Ev.exit: ; preds = %51, %49, %47
  %.pn = phi { ptr, i32 } [ %48, %47 ], [ %lpad.thr_comm.split-lp, %49 ], [ %lpad.phi15, %51 ]
  resume { ptr, i32 } %.pn
}